target datalayout = "e-m:e-p270:32:32-p271:32:32-p272:64:64-i64:64-i128:128-f80:128-n8:16:32:64-S128"
target triple = "x86_64-pc-linux-gnu"

%struct.ossl_record_layer_st = type { ptr, ptr, i32, i32, i32, i32, i32, ptr, i16, ptr, ptr, ptr, i64, i32, [33 x %struct.tls_buffer_st], i64, i64, %struct.tls_buffer_st, [32 x %struct.tls_rl_record_st], i64, i64, i64, i32, ptr, i64, [8 x i8], i32, i32, i64, i32, ptr, ptr, i64, ptr, ptr, i32, i32, i32, i64, i64, i64, [64 x i8], i32, i32, i32, ptr, ptr, i32, i32, i64, ptr, ptr, %struct.dtls_bitmap_st, %struct.dtls_bitmap_st, i32, ptr, ptr, ptr, ptr, ptr, i64, ptr }
%struct.tls_buffer_st = type { ptr, i64, i64, i64, i64, i32, i32 }
%struct.tls_rl_record_st = type { i32, i32, i64, i64, i64, ptr, ptr, ptr, i16, [8 x i8] }
%struct.dtls_bitmap_st = type { i64, [8 x i8] }

@.str = private unnamed_addr constant [44 x i8] c"../openssl/ssl/record/methods/tlsany_meth.c\00", align 1
@__func__.tls_validate_record_header = private unnamed_addr constant [27 x i8] c"tls_validate_record_header\00", align 1
@.str.1 = private unnamed_addr constant [5 x i8] c"GET \00", align 1
@.str.2 = private unnamed_addr constant [6 x i8] c"POST \00", align 1
@.str.3 = private unnamed_addr constant [6 x i8] c"HEAD \00", align 1
@.str.4 = private unnamed_addr constant [5 x i8] c"PUT \00", align 1
@.str.5 = private unnamed_addr constant [6 x i8] c"CONNE\00", align 1

; Function Attrs: nounwind uwtable
define internal i32 @tls_validate_record_header(ptr noundef %0, ptr noundef %1) #0 {
  %3 = alloca i32, align 4
  %4 = alloca ptr, align 8
  %5 = alloca ptr, align 8
  %6 = alloca ptr, align 8
  %7 = alloca i32, align 4
  store ptr %0, ptr %4, align 8, !tbaa !3
  store ptr %1, ptr %5, align 8, !tbaa !20
  %8 = load ptr, ptr %5, align 8, !tbaa !20
  %9 = getelementptr inbounds nuw %struct.tls_rl_record_st, ptr %8, i32 0, i32 0
  %10 = load i32, ptr %9, align 8, !tbaa !37
  %11 = icmp eq i32 %10, 2
  br i1 %11, label %12, label %35

12:                                               ; preds = %2
  %13 = load ptr, ptr %4, align 8, !tbaa !3
  %14 = getelementptr inbounds nuw %struct.ossl_record_layer_st, ptr %13, i32 0, i32 3
  %15 = load i32, ptr %14, align 4, !tbaa !24
  %16 = icmp eq i32 %15, 65536
  %17 = zext i1 %16 to i32
  %18 = icmp ne i32 %17, 0
  %19 = xor i1 %18, true
  %20 = xor i1 %19, true
  %21 = zext i1 %20 to i32
  %22 = sext i32 %21 to i64
  %23 = call i64 @llvm.expect.i64(i64 %22, i64 1)
  %24 = icmp ne i64 %23, 0
  br i1 %24, label %27, label %25

25:                                               ; preds = %12
  call void @ERR_new()
  call void @ERR_set_debug(ptr noundef @.str, i32 noundef 49, ptr noundef @__func__.tls_validate_record_header)
  %26 = load ptr, ptr %4, align 8, !tbaa !3
  call void (ptr, i32, i32, ptr, ...) @ossl_rlayer_fatal(ptr noundef %26, i32 noundef 80, i32 noundef 786691, ptr noundef null)
  store i32 0, ptr %3, align 4
  br label %137

27:                                               ; preds = %12
  %28 = load ptr, ptr %5, align 8, !tbaa !20
  %29 = getelementptr inbounds nuw %struct.tls_rl_record_st, ptr %28, i32 0, i32 2
  %30 = load i64, ptr %29, align 8, !tbaa !39
  %31 = icmp ult i64 %30, 9
  br i1 %31, label %32, label %34

32:                                               ; preds = %27
  call void @ERR_new()
  call void @ERR_set_debug(ptr noundef @.str, i32 noundef 53, ptr noundef @__func__.tls_validate_record_header)
  %33 = load ptr, ptr %4, align 8, !tbaa !3
  call void (ptr, i32, i32, ptr, ...) @ossl_rlayer_fatal(ptr noundef %33, i32 noundef 50, i32 noundef 160, ptr noundef null)
  store i32 0, ptr %3, align 4
  br label %137

34:                                               ; preds = %27
  br label %129

35:                                               ; preds = %2
  %36 = load ptr, ptr %4, align 8, !tbaa !3
  %37 = getelementptr inbounds nuw %struct.ossl_record_layer_st, ptr %36, i32 0, i32 3
  %38 = load i32, ptr %37, align 4, !tbaa !24
  %39 = icmp eq i32 %38, 65536
  br i1 %39, label %40, label %85

40:                                               ; preds = %35
  %41 = load ptr, ptr %5, align 8, !tbaa !20
  %42 = getelementptr inbounds nuw %struct.tls_rl_record_st, ptr %41, i32 0, i32 0
  %43 = load i32, ptr %42, align 8, !tbaa !37
  %44 = ashr i32 %43, 8
  %45 = icmp ne i32 %44, 3
  br i1 %45, label %46, label %84

46:                                               ; preds = %40
  %47 = load ptr, ptr %4, align 8, !tbaa !3
  %48 = getelementptr inbounds nuw %struct.ossl_record_layer_st, ptr %47, i32 0, i32 48
  %49 = load i32, ptr %48, align 4, !tbaa !40
  %50 = icmp ne i32 %49, 0
  br i1 %50, label %51, label %82

51:                                               ; preds = %46
  call void @llvm.lifetime.start.p0(i64 8, ptr %6) #5
  %52 = load ptr, ptr %4, align 8, !tbaa !3
  %53 = getelementptr inbounds nuw %struct.ossl_record_layer_st, ptr %52, i32 0, i32 23
  %54 = load ptr, ptr %53, align 8, !tbaa !41
  store ptr %54, ptr %6, align 8, !tbaa !10
  %55 = load ptr, ptr %6, align 8, !tbaa !10
  %56 = call i32 @strncmp(ptr noundef %55, ptr noundef @.str.1, i64 noundef 4) #6
  %57 = icmp eq i32 %56, 0
  br i1 %57, label %70, label %58

58:                                               ; preds = %51
  %59 = load ptr, ptr %6, align 8, !tbaa !10
  %60 = call i32 @strncmp(ptr noundef %59, ptr noundef @.str.2, i64 noundef 5) #6
  %61 = icmp eq i32 %60, 0
  br i1 %61, label %70, label %62

62:                                               ; preds = %58
  %63 = load ptr, ptr %6, align 8, !tbaa !10
  %64 = call i32 @strncmp(ptr noundef %63, ptr noundef @.str.3, i64 noundef 5) #6
  %65 = icmp eq i32 %64, 0
  br i1 %65, label %70, label %66

66:                                               ; preds = %62
  %67 = load ptr, ptr %6, align 8, !tbaa !10
  %68 = call i32 @strncmp(ptr noundef %67, ptr noundef @.str.4, i64 noundef 4) #6
  %69 = icmp eq i32 %68, 0
  br i1 %69, label %70, label %72

70:                                               ; preds = %66, %62, %58, %51
  call void @ERR_new()
  call void @ERR_set_debug(ptr noundef @.str, i32 noundef 71, ptr noundef @__func__.tls_validate_record_header)
  %71 = load ptr, ptr %4, align 8, !tbaa !3
  call void (ptr, i32, i32, ptr, ...) @ossl_rlayer_fatal(ptr noundef %71, i32 noundef -1, i32 noundef 156, ptr noundef null)
  store i32 0, ptr %3, align 4
  store i32 1, ptr %7, align 4
  br label %81

72:                                               ; preds = %66
  %73 = load ptr, ptr %6, align 8, !tbaa !10
  %74 = call i32 @strncmp(ptr noundef %73, ptr noundef @.str.5, i64 noundef 5) #6
  %75 = icmp eq i32 %74, 0
  br i1 %75, label %76, label %78

76:                                               ; preds = %72
  call void @ERR_new()
  call void @ERR_set_debug(ptr noundef @.str, i32 noundef 75, ptr noundef @__func__.tls_validate_record_header)
  %77 = load ptr, ptr %4, align 8, !tbaa !3
  call void (ptr, i32, i32, ptr, ...) @ossl_rlayer_fatal(ptr noundef %77, i32 noundef -1, i32 noundef 155, ptr noundef null)
  store i32 0, ptr %3, align 4
  store i32 1, ptr %7, align 4
  br label %81

78:                                               ; preds = %72
  br label %79

79:                                               ; preds = %78
  call void @ERR_new()
  call void @ERR_set_debug(ptr noundef @.str, i32 noundef 81, ptr noundef @__func__.tls_validate_record_header)
  %80 = load ptr, ptr %4, align 8, !tbaa !3
  call void (ptr, i32, i32, ptr, ...) @ossl_rlayer_fatal(ptr noundef %80, i32 noundef -1, i32 noundef 267, ptr noundef null)
  store i32 0, ptr %3, align 4
  store i32 1, ptr %7, align 4
  br label %81

81:                                               ; preds = %79, %76, %70
  call void @llvm.lifetime.end.p0(i64 8, ptr %6) #5
  br label %137

82:                                               ; preds = %46
  call void @ERR_new()
  call void @ERR_set_debug(ptr noundef @.str, i32 noundef 85, ptr noundef @__func__.tls_validate_record_header)
  %83 = load ptr, ptr %4, align 8, !tbaa !3
  call void (ptr, i32, i32, ptr, ...) @ossl_rlayer_fatal(ptr noundef %83, i32 noundef 70, i32 noundef 267, ptr noundef null)
  store i32 0, ptr %3, align 4
  br label %137

84:                                               ; preds = %40
  br label %128

85:                                               ; preds = %35
  %86 = load ptr, ptr %4, align 8, !tbaa !3
  %87 = getelementptr inbounds nuw %struct.ossl_record_layer_st, ptr %86, i32 0, i32 3
  %88 = load i32, ptr %87, align 4, !tbaa !24
  %89 = icmp eq i32 %88, 772
  br i1 %89, label %90, label %91

90:                                               ; preds = %85
  br label %127

91:                                               ; preds = %85
  %92 = load ptr, ptr %5, align 8, !tbaa !20
  %93 = getelementptr inbounds nuw %struct.tls_rl_record_st, ptr %92, i32 0, i32 0
  %94 = load i32, ptr %93, align 8, !tbaa !37
  %95 = load ptr, ptr %4, align 8, !tbaa !3
  %96 = getelementptr inbounds nuw %struct.ossl_record_layer_st, ptr %95, i32 0, i32 3
  %97 = load i32, ptr %96, align 4, !tbaa !24
  %98 = icmp ne i32 %94, %97
  br i1 %98, label %99, label %126

99:                                               ; preds = %91
  %100 = load ptr, ptr %4, align 8, !tbaa !3
  %101 = getelementptr inbounds nuw %struct.ossl_record_layer_st, ptr %100, i32 0, i32 3
  %102 = load i32, ptr %101, align 4, !tbaa !24
  %103 = and i32 %102, 65280
  %104 = load ptr, ptr %5, align 8, !tbaa !20
  %105 = getelementptr inbounds nuw %struct.tls_rl_record_st, ptr %104, i32 0, i32 0
  %106 = load i32, ptr %105, align 8, !tbaa !37
  %107 = and i32 %106, 65280
  %108 = icmp eq i32 %103, %107
  br i1 %108, label %109, label %124

109:                                              ; preds = %99
  %110 = load ptr, ptr %5, align 8, !tbaa !20
  %111 = getelementptr inbounds nuw %struct.tls_rl_record_st, ptr %110, i32 0, i32 1
  %112 = load i32, ptr %111, align 4, !tbaa !42
  %113 = icmp eq i32 %112, 21
  br i1 %113, label %114, label %116

114:                                              ; preds = %109
  call void @ERR_new()
  call void @ERR_set_debug(ptr noundef @.str, i32 noundef 107, ptr noundef @__func__.tls_validate_record_header)
  %115 = load ptr, ptr %4, align 8, !tbaa !3
  call void (ptr, i32, i32, ptr, ...) @ossl_rlayer_fatal(ptr noundef %115, i32 noundef -1, i32 noundef 267, ptr noundef null)
  store i32 0, ptr %3, align 4
  br label %137

116:                                              ; preds = %109
  %117 = load ptr, ptr %5, align 8, !tbaa !20
  %118 = getelementptr inbounds nuw %struct.tls_rl_record_st, ptr %117, i32 0, i32 0
  %119 = load i32, ptr %118, align 8, !tbaa !37
  %120 = trunc i32 %119 to i16
  %121 = zext i16 %120 to i32
  %122 = load ptr, ptr %4, align 8, !tbaa !3
  %123 = getelementptr inbounds nuw %struct.ossl_record_layer_st, ptr %122, i32 0, i32 3
  store i32 %121, ptr %123, align 4, !tbaa !24
  br label %124

124:                                              ; preds = %116, %99
  call void @ERR_new()
  call void @ERR_set_debug(ptr noundef @.str, i32 noundef 114, ptr noundef @__func__.tls_validate_record_header)
  %125 = load ptr, ptr %4, align 8, !tbaa !3
  call void (ptr, i32, i32, ptr, ...) @ossl_rlayer_fatal(ptr noundef %125, i32 noundef 70, i32 noundef 267, ptr noundef null)
  store i32 0, ptr %3, align 4
  br label %137

126:                                              ; preds = %91
  br label %127

127:                                              ; preds = %126, %90
  br label %128

128:                                              ; preds = %127, %84
  br label %129

129:                                              ; preds = %128, %34
  %130 = load ptr, ptr %5, align 8, !tbaa !20
  %131 = getelementptr inbounds nuw %struct.tls_rl_record_st, ptr %130, i32 0, i32 2
  %132 = load i64, ptr %131, align 8, !tbaa !39
  %133 = icmp ugt i64 %132, 16384
  br i1 %133, label %134, label %136

134:                                              ; preds = %129
  call void @ERR_new()
  call void @ERR_set_debug(ptr noundef @.str, i32 noundef 124, ptr noundef @__func__.tls_validate_record_header)
  %135 = load ptr, ptr %4, align 8, !tbaa !3
  call void (ptr, i32, i32, ptr, ...) @ossl_rlayer_fatal(ptr noundef %135, i32 noundef 22, i32 noundef 146, ptr noundef null)
  store i32 0, ptr %3, align 4
  br label %137

136:                                              ; preds = %129
  store i32 1, ptr %3, align 4
  br label %137

137:                                              ; preds = %136, %134, %124, %114, %82, %81, %32, %25
  %138 = load i32, ptr %3, align 4
  ret i32 %138
}