; Function Attrs: nounwind uwtable
define internal range(i32 0, 2) i32 @tls_validate_record_header(ptr noundef %0, ptr noundef readonly captures(none) %1) #0 {
  %3 = load i32, ptr %1, align 8, !tbaa !23
  %4 = icmp eq i32 %3, 2
  %5 = getelementptr inbounds nuw i8, ptr %0, i64 20
  %6 = load i32, ptr %5, align 4, !tbaa !3
  br i1 %4, label %7, label %15

7:                                                ; preds = %2
  %8 = icmp eq i32 %6, 65536
  br i1 %8, label %10, label %9, !prof !25

9:                                                ; preds = %7
  tail call void @ERR_new() #5
  tail call void @ERR_set_debug(ptr noundef nonnull @.str, i32 noundef 49, ptr noundef nonnull @__func__.tls_validate_record_header) #5
  tail call void (ptr, i32, i32, ptr, ...) @ossl_rlayer_fatal(ptr noundef nonnull %0, i32 noundef 80, i32 noundef 786691, ptr noundef null) #5
  br label %59

10:                                               ; preds = %7
  %11 = getelementptr inbounds nuw i8, ptr %1, i64 8
  %12 = load i64, ptr %11, align 8, !tbaa !26
  %13 = icmp ult i64 %12, 9
  br i1 %13, label %14, label %54

14:                                               ; preds = %10
  tail call void @ERR_new() #5
  tail call void @ERR_set_debug(ptr noundef nonnull @.str, i32 noundef 53, ptr noundef nonnull @__func__.tls_validate_record_header) #5
  tail call void (ptr, i32, i32, ptr, ...) @ossl_rlayer_fatal(ptr noundef nonnull %0, i32 noundef 50, i32 noundef 160, ptr noundef null) #5
  br label %59

15:                                               ; preds = %2
  switch i32 %6, label %41 [
    i32 65536, label %16
    i32 772, label %54
  ]

16:                                               ; preds = %15
  %.mask = and i32 %3, -256
  %.not32 = icmp eq i32 %.mask, 768
  br i1 %.not32, label %54, label %17

17:                                               ; preds = %16
  %18 = getelementptr inbounds nuw i8, ptr %0, i64 4308
  %19 = load i32, ptr %18, align 4, !tbaa !27
  %.not33 = icmp eq i32 %19, 0
  br i1 %.not33, label %40, label %20

20:                                               ; preds = %17
  %21 = getelementptr inbounds nuw i8, ptr %0, i64 4080
  %22 = load ptr, ptr %21, align 8, !tbaa !28
  %23 = tail call i32 @strncmp(ptr noundef nonnull dereferenceable(1) %22, ptr noundef nonnull dereferenceable(5) @.str.1, i64 noundef 4) #6
  %24 = icmp eq i32 %23, 0
  br i1 %24, label %34, label %25

25:                                               ; preds = %20
  %26 = tail call i32 @strncmp(ptr noundef nonnull dereferenceable(1) %22, ptr noundef nonnull dereferenceable(6) @.str.2, i64 noundef 5) #6
  %27 = icmp eq i32 %26, 0
  br i1 %27, label %34, label %28

28:                                               ; preds = %25
  %29 = tail call i32 @strncmp(ptr noundef nonnull dereferenceable(1) %22, ptr noundef nonnull dereferenceable(6) @.str.3, i64 noundef 5) #6
  %30 = icmp eq i32 %29, 0
  br i1 %30, label %34, label %31

31:                                               ; preds = %28
  %32 = tail call i32 @strncmp(ptr noundef nonnull dereferenceable(1) %22, ptr noundef nonnull dereferenceable(5) @.str.4, i64 noundef 4) #6
  %33 = icmp eq i32 %32, 0
  br i1 %33, label %34, label %35

34:                                               ; preds = %31, %28, %25, %20
  tail call void @ERR_new() #5
  tail call void @ERR_set_debug(ptr noundef nonnull @.str, i32 noundef 71, ptr noundef nonnull @__func__.tls_validate_record_header) #5
  tail call void (ptr, i32, i32, ptr, ...) @ossl_rlayer_fatal(ptr noundef nonnull %0, i32 noundef -1, i32 noundef 156, ptr noundef null) #5
  br label %59

35:                                               ; preds = %31
  %36 = tail call i32 @strncmp(ptr noundef nonnull dereferenceable(1) %22, ptr noundef nonnull dereferenceable(6) @.str.5, i64 noundef 5) #6
  %37 = icmp eq i32 %36, 0
  tail call void @ERR_new() #5
  br i1 %37, label %38, label %39

38:                                               ; preds = %35
  tail call void @ERR_set_debug(ptr noundef nonnull @.str, i32 noundef 75, ptr noundef nonnull @__func__.tls_validate_record_header) #5
  tail call void (ptr, i32, i32, ptr, ...) @ossl_rlayer_fatal(ptr noundef nonnull %0, i32 noundef -1, i32 noundef 155, ptr noundef null) #5
  br label %59

39:                                               ; preds = %35
  tail call void @ERR_set_debug(ptr noundef nonnull @.str, i32 noundef 81, ptr noundef nonnull @__func__.tls_validate_record_header) #5
  tail call void (ptr, i32, i32, ptr, ...) @ossl_rlayer_fatal(ptr noundef nonnull %0, i32 noundef -1, i32 noundef 267, ptr noundef null) #5
  br label %59

40:                                               ; preds = %17
  tail call void @ERR_new() #5
  tail call void @ERR_set_debug(ptr noundef nonnull @.str, i32 noundef 85, ptr noundef nonnull @__func__.tls_validate_record_header) #5
  tail call void (ptr, i32, i32, ptr, ...) @ossl_rlayer_fatal(ptr noundef nonnull %0, i32 noundef 70, i32 noundef 267, ptr noundef null) #5
  br label %59

41:                                               ; preds = %15
  %.not = icmp eq i32 %3, %6
  br i1 %.not, label %54, label %42

42:                                               ; preds = %41
  %43 = xor i32 %6, %3
  %44 = and i32 %43, 65280
  %45 = icmp eq i32 %44, 0
  br i1 %45, label %46, label %53

46:                                               ; preds = %42
  %47 = getelementptr inbounds nuw i8, ptr %1, i64 4
  %48 = load i32, ptr %47, align 4, !tbaa !29
  %49 = icmp eq i32 %48, 21
  br i1 %49, label %50, label %51

50:                                               ; preds = %46
  tail call void @ERR_new() #5
  tail call void @ERR_set_debug(ptr noundef nonnull @.str, i32 noundef 107, ptr noundef nonnull @__func__.tls_validate_record_header) #5
  tail call void (ptr, i32, i32, ptr, ...) @ossl_rlayer_fatal(ptr noundef nonnull %0, i32 noundef -1, i32 noundef 267, ptr noundef null) #5
  br label %59

51:                                               ; preds = %46
  %52 = and i32 %3, 65535
  store i32 %52, ptr %5, align 4, !tbaa !3
  br label %53

53:                                               ; preds = %51, %42
  tail call void @ERR_new() #5
  tail call void @ERR_set_debug(ptr noundef nonnull @.str, i32 noundef 114, ptr noundef nonnull @__func__.tls_validate_record_header) #5
  tail call void (ptr, i32, i32, ptr, ...) @ossl_rlayer_fatal(ptr noundef nonnull %0, i32 noundef 70, i32 noundef 267, ptr noundef null) #5
  br label %59

54:                                               ; preds = %15, %16, %41, %10
  %55 = getelementptr inbounds nuw i8, ptr %1, i64 8
  %56 = load i64, ptr %55, align 8, !tbaa !26
  %57 = icmp ugt i64 %56, 16384
  br i1 %57, label %58, label %59

58:                                               ; preds = %54
  tail call void @ERR_new() #5
  tail call void @ERR_set_debug(ptr noundef nonnull @.str, i32 noundef 124, ptr noundef nonnull @__func__.tls_validate_record_header) #5
  tail call void (ptr, i32, i32, ptr, ...) @ossl_rlayer_fatal(ptr noundef nonnull %0, i32 noundef 22, i32 noundef 146, ptr noundef null) #5
  br label %59

59:                                               ; preds = %54, %34, %38, %39, %58, %53, %50, %40, %14, %9
  %.0 = phi i32 [ 0, %14 ], [ 0, %58 ], [ 0, %9 ], [ 0, %40 ], [ 0, %50 ], [ 0, %53 ], [ 0, %39 ], [ 0, %38 ], [ 0, %34 ], [ 1, %54 ]
  ret i32 %.0
}